target datalayout = "e-m:e-p270:32:32-p271:32:32-p272:64:64-i64:64-i128:128-f80:128-n8:16:32:64-S128"
target triple = "x86_64-pc-linux-gnu"

%"class.std::vector.89" = type { %"struct.std::_Vector_base.90" }
%"struct.std::_Vector_base.90" = type { %"struct.std::_Vector_base<unsigned long, std::allocator<unsigned long>>::_Vector_impl" }
%"struct.std::_Vector_base<unsigned long, std::allocator<unsigned long>>::_Vector_impl" = type { %"struct.std::_Vector_base<unsigned long, std::allocator<unsigned long>>::_Vector_impl_data" }
%"struct.std::_Vector_base<unsigned long, std::allocator<unsigned long>>::_Vector_impl_data" = type { ptr, ptr, ptr }
%"class.xgboost::linalg::Tensor" = type <{ %"class.xgboost::HostDeviceVector", [2 x i64], i8, [7 x i8] }>
%"class.xgboost::HostDeviceVector" = type { ptr }
%"class.xgboost::MetaInfo" = type <{ i64, i64, i64, %"class.xgboost::linalg::Tensor", i32, [4 x i8], %"class.std::vector.78", %"class.xgboost::HostDeviceVector", %"class.xgboost::linalg::Tensor", %"class.xgboost::HostDeviceVector", %"class.xgboost::HostDeviceVector", %"class.std::vector.83", %"class.std::vector.83", %"class.xgboost::HostDeviceVector.88", %"class.xgboost::HostDeviceVector", %"class.std::vector.89", i8, [7 x i8] }>
%"class.std::vector.78" = type { %"struct.std::_Vector_base.79" }
%"struct.std::_Vector_base.79" = type { %"struct.std::_Vector_base<unsigned int, std::allocator<unsigned int>>::_Vector_impl" }
%"struct.std::_Vector_base<unsigned int, std::allocator<unsigned int>>::_Vector_impl" = type { %"struct.std::_Vector_base<unsigned int, std::allocator<unsigned int>>::_Vector_impl_data" }
%"struct.std::_Vector_base<unsigned int, std::allocator<unsigned int>>::_Vector_impl_data" = type { ptr, ptr, ptr }
%"class.std::vector.83" = type { %"struct.std::_Vector_base.84" }
%"struct.std::_Vector_base.84" = type { %"struct.std::_Vector_base<std::__cxx11::basic_string<char>, std::allocator<std::__cxx11::basic_string<char>>>::_Vector_impl" }
%"struct.std::_Vector_base<std::__cxx11::basic_string<char>, std::allocator<std::__cxx11::basic_string<char>>>::_Vector_impl" = type { %"struct.std::_Vector_base<std::__cxx11::basic_string<char>, std::allocator<std::__cxx11::basic_string<char>>>::_Vector_impl_data" }
%"struct.std::_Vector_base<std::__cxx11::basic_string<char>, std::allocator<std::__cxx11::basic_string<char>>>::_Vector_impl_data" = type { ptr, ptr, ptr }
%"class.xgboost::HostDeviceVector.88" = type { ptr }

; Function Attrs: mustprogress nounwind uwtable
define linkonce_odr noundef zeroext i1 @_ZNK7xgboost8MetaInfo13IsColumnSplitEv(ptr noundef nonnull align 8 dereferenceable(233) %0) #6 comdat align 2 {
  %2 = alloca ptr, align 8
  store ptr %0, ptr %2, align 8, !tbaa !287
  %3 = load ptr, ptr %2, align 8
  %4 = getelementptr inbounds nuw %"class.xgboost::MetaInfo", ptr %3, i32 0, i32 4
  %5 = load i32, ptr %4, align 8, !tbaa !376
  %6 = icmp eq i32 %5, 1
  ret i1 %6
}

; Function Attrs: mustprogress uwtable
define noundef zeroext i1 @_ZNK7xgboost8MetaInfo19IsVerticalFederatedEv(ptr noundef nonnull align 8 dereferenceable(233) %0) #5 align 2 {
  %2 = alloca ptr, align 8
  store ptr %0, ptr %2, align 8, !tbaa !287
  %3 = load ptr, ptr %2, align 8
  %4 = call noundef zeroext i1 @_ZN7xgboost10collective11IsFederatedEv()
  br i1 %4, label %5, label %7

5:                                                ; preds = %1
  %6 = call noundef zeroext i1 @_ZNK7xgboost8MetaInfo13IsColumnSplitEv(ptr noundef nonnull align 8 dereferenceable(233) %3)
  br label %7

7:                                                ; preds = %5, %1
  %8 = phi i1 [ false, %1 ], [ %6, %5 ]
  ret i1 %8
}

; Function Attrs: mustprogress uwtable
define noundef zeroext i1 @_ZNK7xgboost8MetaInfo16ShouldHaveLabelsEv(ptr noundef nonnull align 8 dereferenceable(233) %0) #5 align 2 {
  %2 = alloca ptr, align 8
  store ptr %0, ptr %2, align 8, !tbaa !287
  %3 = load ptr, ptr %2, align 8
  %4 = call noundef zeroext i1 @_ZNK7xgboost8MetaInfo19IsVerticalFederatedEv(ptr noundef nonnull align 8 dereferenceable(233) %3)
  br i1 %4, label %5, label %8

5:                                                ; preds = %1
  %6 = call noundef i32 @_ZN7xgboost10collective7GetRankEv() #3
  %7 = icmp eq i32 %6, 0
  br label %8

8:                                                ; preds = %5, %1
  %9 = phi i1 [ true, %1 ], [ %7, %5 ]
  ret i1 %9
}