; Function Attrs: mustprogress uwtable
define noundef zeroext i1 @_ZNK7xgboost8MetaInfo16ShouldHaveLabelsEv(ptr noundef nonnull readonly align 8 captures(none) dereferenceable(233) %0) local_unnamed_addr #5 align 2 {
  %2 = tail call noundef zeroext i1 @_ZN7xgboost10collective11IsFederatedEv()
  %3 = getelementptr inbounds nuw i8, ptr %0, i64 56
  %4 = load i32, ptr %3, align 8
  %5 = icmp eq i32 %4, 1
  %6 = select i1 %2, i1 %5, i1 false
  br i1 %6, label %7, label %10

7:                                                ; preds = %1
  %8 = tail call noundef i32 @_ZN7xgboost10collective7GetRankEv() #21
  %9 = icmp eq i32 %8, 0
  br label %10

10:                                               ; preds = %7, %1
  %11 = phi i1 [ true, %1 ], [ %9, %7 ]
  ret i1 %11
}